target datalayout = "e-m:e-p270:32:32-p271:32:32-p272:64:64-i64:64-i128:128-f80:128-n8:16:32:64-S128"
target triple = "x86_64-pc-linux-gnu"

%struct.Aig_Obj_t_ = type { %union.anon, ptr, ptr, i64, i32, i32, %union.anon.0 }
%union.anon = type { ptr }
%union.anon.0 = type { ptr }
%struct.Aig_Man_t_ = type { ptr, ptr, ptr, ptr, ptr, ptr, ptr, %struct.Aig_Obj_t_, i32, i32, i32, i32, i32, i32, [7 x i32], i32, ptr, i32, ptr, i32, ptr, i32, i32, i32, ptr, i32, i32, i32, i32, i32, ptr, ptr, i32, ptr, ptr, i32, ptr, ptr, i32, i32, i32, ptr, ptr, ptr, ptr, ptr, ptr, ptr, ptr, ptr, ptr, ptr, ptr, ptr, ptr, i32, ptr, ptr, ptr, ptr, i32, i64, i64, i64, ptr, ptr }
%struct.Vec_Ptr_t_ = type { i32, i32, ptr }

; Function Attrs: inlinehint nounwind uwtable
define internal ptr @Aig_ObjRepr(ptr noundef %0, ptr noundef %1) #3 {
  %3 = alloca ptr, align 8
  %4 = alloca ptr, align 8
  store ptr %0, ptr %3, align 8, !tbaa !24
  store ptr %1, ptr %4, align 8, !tbaa !3
  %5 = load ptr, ptr %3, align 8, !tbaa !24
  %6 = getelementptr inbounds nuw %struct.Aig_Man_t_, ptr %5, i32 0, i32 31
  %7 = load ptr, ptr %6, align 8, !tbaa !50
  %8 = icmp ne ptr %7, null
  br i1 %8, label %9, label %19

9:                                                ; preds = %2
  %10 = load ptr, ptr %3, align 8, !tbaa !24
  %11 = getelementptr inbounds nuw %struct.Aig_Man_t_, ptr %10, i32 0, i32 31
  %12 = load ptr, ptr %11, align 8, !tbaa !50
  %13 = load ptr, ptr %4, align 8, !tbaa !3
  %14 = getelementptr inbounds nuw %struct.Aig_Obj_t_, ptr %13, i32 0, i32 5
  %15 = load i32, ptr %14, align 4, !tbaa !51
  %16 = sext i32 %15 to i64
  %17 = getelementptr inbounds ptr, ptr %12, i64 %16
  %18 = load ptr, ptr %17, align 8, !tbaa !3
  br label %20

19:                                               ; preds = %2
  br label %20

20:                                               ; preds = %19, %9
  %21 = phi ptr [ %18, %9 ], [ null, %19 ]
  ret ptr %21
}

; Function Attrs: inlinehint nounwind uwtable
define internal i32 @Aig_ObjIsNode(ptr noundef %0) #3 {
  %2 = alloca ptr, align 8
  store ptr %0, ptr %2, align 8, !tbaa !3
  %3 = load ptr, ptr %2, align 8, !tbaa !3
  %4 = getelementptr inbounds nuw %struct.Aig_Obj_t_, ptr %3, i32 0, i32 3
  %5 = load i64, ptr %4, align 8
  %6 = and i64 %5, 7
  %7 = trunc i64 %6 to i32
  %8 = icmp eq i32 %7, 5
  br i1 %8, label %16, label %9

9:                                                ; preds = %1
  %10 = load ptr, ptr %2, align 8, !tbaa !3
  %11 = getelementptr inbounds nuw %struct.Aig_Obj_t_, ptr %10, i32 0, i32 3
  %12 = load i64, ptr %11, align 8
  %13 = and i64 %12, 7
  %14 = trunc i64 %13 to i32
  %15 = icmp eq i32 %14, 6
  br label %16

16:                                               ; preds = %9, %1
  %17 = phi i1 [ true, %1 ], [ %15, %9 ]
  %18 = zext i1 %17 to i32
  ret i32 %18
}

; Function Attrs: inlinehint nounwind uwtable
define internal ptr @Vec_PtrEntry(ptr noundef %0, i32 noundef %1) #3 {
  %3 = alloca ptr, align 8
  %4 = alloca i32, align 4
  store ptr %0, ptr %3, align 8, !tbaa !45
  store i32 %1, ptr %4, align 4, !tbaa !8
  %5 = load ptr, ptr %3, align 8, !tbaa !45
  %6 = getelementptr inbounds nuw %struct.Vec_Ptr_t_, ptr %5, i32 0, i32 2
  %7 = load ptr, ptr %6, align 8, !tbaa !48
  %8 = load i32, ptr %4, align 4, !tbaa !8
  %9 = sext i32 %8 to i64
  %10 = getelementptr inbounds ptr, ptr %7, i64 %9
  %11 = load ptr, ptr %10, align 8, !tbaa !49
  ret ptr %11
}

; Function Attrs: inlinehint nounwind uwtable
define internal i32 @Vec_PtrSize(ptr noundef %0) #3 {
  %2 = alloca ptr, align 8
  store ptr %0, ptr %2, align 8, !tbaa !45
  %3 = load ptr, ptr %2, align 8, !tbaa !45
  %4 = getelementptr inbounds nuw %struct.Vec_Ptr_t_, ptr %3, i32 0, i32 1
  %5 = load i32, ptr %4, align 4, !tbaa !46
  ret i32 %5
}

; Function Attrs: nounwind uwtable
define i32 @Saig_StrSimCountMatchedNodes(ptr noundef %0) #0 {
  %2 = alloca ptr, align 8
  %3 = alloca ptr, align 8
  %4 = alloca i32, align 4
  %5 = alloca i32, align 4
  store ptr %0, ptr %2, align 8, !tbaa !24
  call void @llvm.lifetime.start.p0(i64 8, ptr %3) #10
  call void @llvm.lifetime.start.p0(i64 4, ptr %4) #10
  call void @llvm.lifetime.start.p0(i64 4, ptr %5) #10
  store i32 0, ptr %5, align 4, !tbaa !8
  store i32 0, ptr %4, align 4, !tbaa !8
  br label %6

6:                                                ; preds = %39, %1
  %7 = load i32, ptr %4, align 4, !tbaa !8
  %8 = load ptr, ptr %2, align 8, !tbaa !24
  %9 = getelementptr inbounds nuw %struct.Aig_Man_t_, ptr %8, i32 0, i32 4
  %10 = load ptr, ptr %9, align 8, !tbaa !26
  %11 = call i32 @Vec_PtrSize(ptr noundef %10)
  %12 = icmp slt i32 %7, %11
  br i1 %12, label %13, label %19

13:                                               ; preds = %6
  %14 = load ptr, ptr %2, align 8, !tbaa !24
  %15 = getelementptr inbounds nuw %struct.Aig_Man_t_, ptr %14, i32 0, i32 4
  %16 = load ptr, ptr %15, align 8, !tbaa !26
  %17 = load i32, ptr %4, align 4, !tbaa !8
  %18 = call ptr @Vec_PtrEntry(ptr noundef %16, i32 noundef %17)
  store ptr %18, ptr %3, align 8, !tbaa !3
  br label %19

19:                                               ; preds = %13, %6
  %20 = phi i1 [ false, %6 ], [ true, %13 ]
  br i1 %20, label %21, label %42

21:                                               ; preds = %19
  %22 = load ptr, ptr %3, align 8, !tbaa !3
  %23 = icmp eq ptr %22, null
  br i1 %23, label %28, label %24

24:                                               ; preds = %21
  %25 = load ptr, ptr %3, align 8, !tbaa !3
  %26 = call i32 @Aig_ObjIsNode(ptr noundef %25)
  %27 = icmp ne i32 %26, 0
  br i1 %27, label %29, label %28

28:                                               ; preds = %24, %21
  br label %38

29:                                               ; preds = %24
  %30 = load ptr, ptr %2, align 8, !tbaa !24
  %31 = load ptr, ptr %3, align 8, !tbaa !3
  %32 = call ptr @Aig_ObjRepr(ptr noundef %30, ptr noundef %31)
  %33 = icmp ne ptr %32, null
  br i1 %33, label %34, label %37

34:                                               ; preds = %29
  %35 = load i32, ptr %5, align 4, !tbaa !8
  %36 = add nsw i32 %35, 1
  store i32 %36, ptr %5, align 4, !tbaa !8
  br label %37

37:                                               ; preds = %34, %29
  br label %38

38:                                               ; preds = %37, %28
  br label %39

39:                                               ; preds = %38
  %40 = load i32, ptr %4, align 4, !tbaa !8
  %41 = add nsw i32 %40, 1
  store i32 %41, ptr %4, align 4, !tbaa !8
  br label %6, !llvm.loop !66

42:                                               ; preds = %19
  %43 = load i32, ptr %5, align 4, !tbaa !8
  call void @llvm.lifetime.end.p0(i64 4, ptr %5) #10
  call void @llvm.lifetime.end.p0(i64 4, ptr %4) #10
  call void @llvm.lifetime.end.p0(i64 8, ptr %3) #10
  ret i32 %43
}