; Function Attrs: nofree norecurse nosync nounwind memory(read, inaccessiblemem: none) uwtable
define i32 @Saig_StrSimCountMatchedNodes(ptr noundef readonly captures(none) %0) local_unnamed_addr #0 {
  %2 = getelementptr inbounds nuw i8, ptr %0, i64 32
  %3 = load ptr, ptr %2, align 8, !tbaa !20
  %4 = getelementptr i8, ptr %3, i64 4
  %.val = load i32, ptr %4, align 4, !tbaa !32
  %5 = icmp sgt i32 %.val, 0
  br i1 %5, label %.lr.ph, label %.critedge

.lr.ph:                                           ; preds = %1
  %6 = getelementptr i8, ptr %3, i64 8
  %.val13 = load ptr, ptr %6, align 8, !tbaa !34
  %7 = getelementptr i8, ptr %0, i64 256
  %wide.trip.count = zext nneg i32 %.val to i64
  br label %8

8:                                                ; preds = %.lr.ph, %26
  %indvars.iv = phi i64 [ 0, %.lr.ph ], [ %indvars.iv.next, %26 ]
  %.017 = phi i32 [ 0, %.lr.ph ], [ %.1, %26 ]
  %9 = getelementptr inbounds nuw ptr, ptr %.val13, i64 %indvars.iv
  %10 = load ptr, ptr %9, align 8, !tbaa !35
  %11 = icmp eq ptr %10, null
  br i1 %11, label %26, label %12

12:                                               ; preds = %8
  %13 = getelementptr i8, ptr %10, i64 24
  %.val14 = load i64, ptr %13, align 8
  %14 = trunc i64 %.val14 to i32
  %15 = and i32 %14, 7
  %16 = add nsw i32 %15, -7
  %narrow.i = icmp ult i32 %16, -2
  br i1 %narrow.i, label %26, label %17

17:                                               ; preds = %12
  %.val15 = load ptr, ptr %7, align 8, !tbaa !36
  %.not.i = icmp eq ptr %.val15, null
  br i1 %.not.i, label %Aig_ObjRepr.exit, label %18

18:                                               ; preds = %17
  %19 = getelementptr inbounds nuw i8, ptr %10, i64 36
  %20 = load i32, ptr %19, align 4, !tbaa !37
  %21 = sext i32 %20 to i64
  %22 = getelementptr inbounds ptr, ptr %.val15, i64 %21
  %23 = load ptr, ptr %22, align 8, !tbaa !38
  %24 = icmp ne ptr %23, null
  %25 = zext i1 %24 to i32
  br label %Aig_ObjRepr.exit

Aig_ObjRepr.exit:                                 ; preds = %17, %18
  %.not12 = phi i32 [ %25, %18 ], [ 0, %17 ]
  %spec.select = add nsw i32 %.not12, %.017
  br label %26

26:                                               ; preds = %Aig_ObjRepr.exit, %12, %8
  %.1 = phi i32 [ %.017, %8 ], [ %.017, %12 ], [ %spec.select, %Aig_ObjRepr.exit ]
  %indvars.iv.next = add nuw nsw i64 %indvars.iv, 1
  %exitcond.not = icmp eq i64 %indvars.iv.next, %wide.trip.count
  br i1 %exitcond.not, label %.critedge, label %8, !llvm.loop !61

.critedge:                                        ; preds = %26, %1
  %.0.lcssa = phi i32 [ 0, %1 ], [ %.1, %26 ]
  ret i32 %.0.lcssa
}